; Function Attrs: mustprogress uwtable
define void @_ZN12RichFileOpenC2ERK7QStringS2_RK11QStringListS2_S2_bS2_(ptr noundef nonnull align 8 dereferenceable(64) %0, ptr noundef nonnull align 8 dereferenceable(8) %1, ptr noundef nonnull align 8 dereferenceable(8) %2, ptr nocapture noundef nonnull readonly align 8 dereferenceable(8) %3, ptr noundef nonnull align 8 dereferenceable(8) %4, ptr noundef nonnull align 8 dereferenceable(8) %5, i1 noundef zeroext %6, ptr noundef nonnull align 8 dereferenceable(8) %7) unnamed_addr #1 align 2 personality ptr @__gxx_personality_v0 {
  %9 = alloca %class.StringValue, align 8
  call void @_ZN11StringValueC1ERK7QString(ptr noundef nonnull align 8 dereferenceable(16) %9, ptr noundef nonnull align 8 dereferenceable(8) %2)
  invoke void @_ZN13RichParameterC2ERK7QStringRK5ValueS2_S2_bS2_(ptr noundef nonnull align 8 dereferenceable(56) %0, ptr noundef nonnull align 8 dereferenceable(8) %1, ptr noundef nonnull align 8 dereferenceable(8) %9, ptr noundef nonnull align 8 dereferenceable(8) %4, ptr noundef nonnull align 8 dereferenceable(8) %5, i1 noundef zeroext %6, ptr noundef nonnull align 8 dereferenceable(8) %7)
          to label %10 unwind label %48

10:                                               ; preds = %8
  store ptr getelementptr inbounds ({ [25 x ptr] }, ptr @_ZTV11StringValue, i64 0, i32 0, i64 2), ptr %9, align 8
  %11 = getelementptr inbounds i8, ptr %9, i64 8
  %12 = load ptr, ptr %11, align 8
  %13 = load atomic i32, ptr %12 monotonic, align 4
  switch i32 %13, label %_ZN9QtPrivate8RefCount5derefEv.exit.i.i [
    i32 0, label %_ZN9QtPrivate8RefCount5derefEv.exit.thread2.i.i
    i32 -1, label %_ZN11StringValueD2Ev.exit
  ]

_ZN9QtPrivate8RefCount5derefEv.exit.i.i:          ; preds = %10
  %14 = atomicrmw sub ptr %12, i32 1 seq_cst, align 4
  %.not.i.i = icmp eq i32 %14, 1
  br i1 %.not.i.i, label %_ZN9QtPrivate8RefCount5derefEv.exit._ZN9QtPrivate8RefCount5derefEv.exit.thread2_crit_edge.i.i, label %_ZN11StringValueD2Ev.exit

_ZN9QtPrivate8RefCount5derefEv.exit._ZN9QtPrivate8RefCount5derefEv.exit.thread2_crit_edge.i.i: ; preds = %_ZN9QtPrivate8RefCount5derefEv.exit.i.i
  %.pre.i.i = load ptr, ptr %11, align 8
  br label %_ZN9QtPrivate8RefCount5derefEv.exit.thread2.i.i

_ZN9QtPrivate8RefCount5derefEv.exit.thread2.i.i:  ; preds = %_ZN9QtPrivate8RefCount5derefEv.exit._ZN9QtPrivate8RefCount5derefEv.exit.thread2_crit_edge.i.i, %10
  %15 = phi ptr [ %.pre.i.i, %_ZN9QtPrivate8RefCount5derefEv.exit._ZN9QtPrivate8RefCount5derefEv.exit.thread2_crit_edge.i.i ], [ %12, %10 ]
  call void @_ZN10QArrayData10deallocateEPS_mm(ptr noundef %15, i64 noundef 2, i64 noundef 8) #11
  br label %_ZN11StringValueD2Ev.exit

_ZN11StringValueD2Ev.exit:                        ; preds = %10, %_ZN9QtPrivate8RefCount5derefEv.exit.i.i, %_ZN9QtPrivate8RefCount5derefEv.exit.thread2.i.i
  store ptr getelementptr inbounds ({ [8 x ptr] }, ptr @_ZTV12RichFileOpen, i64 0, i32 0, i64 2), ptr %0, align 8
  %16 = getelementptr inbounds i8, ptr %0, i64 56
  %17 = load ptr, ptr %3, align 8
  store ptr %17, ptr %16, align 8
  %18 = load atomic i32, ptr %17 monotonic, align 4
  %19 = add i32 %18, -1
  %or.cond.not.i.i.i = icmp ult i32 %19, -2
  br i1 %or.cond.not.i.i.i, label %_ZN9QtPrivate8RefCount3refEv.exit.thread.i.i, label %_ZN9QtPrivate8RefCount3refEv.exit.i.i

_ZN9QtPrivate8RefCount3refEv.exit.thread.i.i:     ; preds = %_ZN11StringValueD2Ev.exit
  %20 = atomicrmw add ptr %17, i32 1 seq_cst, align 4
  br label %_ZN11QStringListC2ERKS_.exit

_ZN9QtPrivate8RefCount3refEv.exit.i.i:            ; preds = %_ZN11StringValueD2Ev.exit
  %.not.i.i11 = icmp eq i32 %18, 0
  br i1 %.not.i.i11, label %21, label %_ZN11QStringListC2ERKS_.exit

21:                                               ; preds = %_ZN9QtPrivate8RefCount3refEv.exit.i.i
  %22 = getelementptr inbounds i8, ptr %17, i64 4
  %23 = load i32, ptr %22, align 4
  %24 = invoke noundef ptr @_ZN9QListData6detachEi(ptr noundef nonnull align 8 dereferenceable(8) %16, i32 noundef %23)
          to label %.noexc unwind label %50

.noexc:                                           ; preds = %21
  %25 = load ptr, ptr %16, align 8
  %26 = getelementptr i8, ptr %25, i64 16
  %27 = getelementptr inbounds i8, ptr %25, i64 8
  %28 = load i32, ptr %27, align 8
  %29 = getelementptr inbounds i8, ptr %25, i64 12
  %30 = load i32, ptr %29, align 4
  %31 = sext i32 %30 to i64
  %32 = getelementptr inbounds ptr, ptr %26, i64 %31
  %.not8.i.i.i = icmp eq i32 %28, %30
  br i1 %.not8.i.i.i, label %_ZN11QStringListC2ERKS_.exit, label %.lr.ph.i.preheader.i.i

.lr.ph.i.preheader.i.i:                           ; preds = %.noexc
  %33 = load ptr, ptr %3, align 8
  %34 = getelementptr inbounds i8, ptr %33, i64 16
  %35 = getelementptr inbounds i8, ptr %33, i64 8
  %36 = load i32, ptr %35, align 8
  %37 = sext i32 %36 to i64
  %38 = getelementptr inbounds ptr, ptr %34, i64 %37
  %39 = sext i32 %28 to i64
  %40 = getelementptr ptr, ptr %26, i64 %39
  br label %.lr.ph.i.i.i

.lr.ph.i.i.i:                                     ; preds = %_ZN7QStringC2ERKS_.exit.i.i.i, %.lr.ph.i.preheader.i.i
  %.010.i.i.i = phi ptr [ %46, %_ZN7QStringC2ERKS_.exit.i.i.i ], [ %40, %.lr.ph.i.preheader.i.i ]
  %.079.i.i.i = phi ptr [ %47, %_ZN7QStringC2ERKS_.exit.i.i.i ], [ %38, %.lr.ph.i.preheader.i.i ]
  %41 = load ptr, ptr %.079.i.i.i, align 8
  store ptr %41, ptr %.010.i.i.i, align 8
  %42 = load atomic i32, ptr %41 monotonic, align 4
  %43 = add i32 %42, -1
  %or.cond.not.i.i.i.i.i = icmp ult i32 %43, -2
  br i1 %or.cond.not.i.i.i.i.i, label %44, label %_ZN7QStringC2ERKS_.exit.i.i.i

44:                                               ; preds = %.lr.ph.i.i.i
  %45 = atomicrmw add ptr %41, i32 1 seq_cst, align 4
  br label %_ZN7QStringC2ERKS_.exit.i.i.i

_ZN7QStringC2ERKS_.exit.i.i.i:                    ; preds = %44, %.lr.ph.i.i.i
  %46 = getelementptr inbounds i8, ptr %.010.i.i.i, i64 8
  %47 = getelementptr inbounds i8, ptr %.079.i.i.i, i64 8
  %.not.i.i.i = icmp eq ptr %46, %32
  br i1 %.not.i.i.i, label %_ZN11QStringListC2ERKS_.exit, label %.lr.ph.i.i.i, !llvm.loop !10

_ZN11QStringListC2ERKS_.exit:                     ; preds = %_ZN7QStringC2ERKS_.exit.i.i.i, %.noexc, %_ZN9QtPrivate8RefCount3refEv.exit.i.i, %_ZN9QtPrivate8RefCount3refEv.exit.thread.i.i
  ret void

48:                                               ; preds = %8
  %49 = landingpad { ptr, i32 }
          cleanup
  call void @_ZN11StringValueD2Ev(ptr noundef nonnull align 8 dereferenceable(16) %9) #11
  br label %52

50:                                               ; preds = %21
  %51 = landingpad { ptr, i32 }
          cleanup
  call void @_ZN13RichParameterD2Ev(ptr noundef nonnull align 8 dereferenceable(56) %0) #11
  br label %52

52:                                               ; preds = %50, %48
  %.pn = phi { ptr, i32 } [ %51, %50 ], [ %49, %48 ]
  resume { ptr, i32 } %.pn
}